; Function Attrs: mustprogress nofree norecurse nosync nounwind willreturn memory(read, inaccessiblemem: none) uwtable
define noundef double @_ZNK18colvar_grid_scalar13minimum_valueEv(ptr noundef nonnull readonly align 8 captures(none) dereferenceable(712) %0) local_unnamed_addr #18 align 2 {
  %2 = getelementptr inbounds nuw i8, ptr %0, i64 392
  %3 = load ptr, ptr %2, align 8, !tbaa !89
  %4 = load double, ptr %3, align 8, !tbaa !90
  %5 = getelementptr inbounds nuw i8, ptr %0, i64 384
  %6 = load i64, ptr %5, align 8, !tbaa !358
  %.not = icmp eq i64 %6, 0
  br i1 %.not, label %._crit_edge, label %.lr.ph

._crit_edge:                                      ; preds = %.lr.ph, %1
  %.06.lcssa = phi double [ %4, %1 ], [ %.1, %.lr.ph ]
  ret double %.06.lcssa

.lr.ph:                                           ; preds = %1, %.lr.ph
  %.08 = phi i64 [ %10, %.lr.ph ], [ 0, %1 ]
  %.067 = phi double [ %.1, %.lr.ph ], [ %4, %1 ]
  %7 = getelementptr inbounds nuw double, ptr %3, i64 %.08
  %8 = load double, ptr %7, align 8, !tbaa !90
  %9 = fcmp olt double %8, %.067
  %.1 = select i1 %9, double %8, double %.067
  %10 = add nuw i64 %.08, 1
  %exitcond.not = icmp eq i64 %10, %6
  br i1 %exitcond.not, label %._crit_edge, label %.lr.ph, !llvm.loop !503
}